target datalayout = "e-m:e-p270:32:32-p271:32:32-p272:64:64-i64:64-i128:128-f80:128-n8:16:32:64-S128"
target triple = "x86_64-unknown-linux-gnu"

%struct.redisServer = type { i32, i64, ptr, ptr, ptr, i32, i32, i32, i32, i32, ptr, ptr, ptr, ptr, ptr, ptr, i32, i32, i64, i32, i32, i32, i32, ptr, i32, i32, [41 x i8], i32, i64, i32, i32, i32, ptr, ptr, i32, i32, i64, ptr, ptr, ptr, ptr, [2 x i32], i32, i32, i32, i32, i32, [16 x ptr], i32, ptr, ptr, i32, [8 x %struct.connListener], i32, %struct.connListener, ptr, ptr, ptr, ptr, ptr, ptr, ptr, ptr, ptr, ptr, i32, ptr, i32, ptr, [3 x %struct.pause_event], [256 x i8], ptr, i64, i32, i32, i32, i32, i64, i32, i32, i32, i32, i32, i64, i64, i64, i64, i64, i64, i64, i64, i64, double, i64, i64, i64, i64, i64, i64, i64, i64, i64, i64, i64, i64, i64, i64, i64, i64, i64, i64, i64, i64, double, i64, i64, i64, i64, i64, ptr, i64, i64, i64, %struct.malloc_stats, i64, i64, i64, i64, i64, i64, i64, i64, i64, i64, i64, i64, double, [4 x i64], i64, i64, i64, i64, i64, i64, i64, i64, i64, i64, [7 x %struct.anon], i64, i64, i64, i64, i64, i64, [4 x %struct.durationStats], i32, i32, i32, i32, i32, i32, i32, i32, i32, i32, i64, i32, i32, i32, i32, i64, i64, i32, i32, i32, i32, i32, ptr, [3 x %struct.clientBufferLimitsConfig], i32, i32, ptr, i32, i32, i32, i32, ptr, ptr, i32, i32, i64, i64, i64, i64, i64, i32, i32, ptr, i32, i32, i64, i64, i64, i64, i64, i32, i32, i64, i32, i32, i32, i32, i32, i32, i32, i32, ptr, i32, i64, i64, i64, i64, ptr, i32, ptr, i32, i32, i32, i64, i64, i64, i64, i32, i32, i32, i32, i32, i32, ptr, i32, i32, ptr, i32, i32, i32, [2 x i32], i32, %struct.redisOpArray, i32, ptr, i32, ptr, i32, i32, i32, i32, i32, i32, i32, [41 x i8], [41 x i8], i64, i64, i64, i64, i32, i32, ptr, i64, i64, i64, i32, i32, i32, i32, i32, i32, i32, i64, ptr, ptr, ptr, ptr, i32, i32, ptr, ptr, i32, i32, i64, i64, i64, ptr, i32, ptr, i64, i32, i32, i32, i64, i32, i32, i32, i32, ptr, i32, i32, [41 x i8], i64, i32, ptr, i32, i32, i64, i64, i32, i32, i32, i32, i32, i64, [3 x i32], i32, i32, i32, [9 x i32], ptr, ptr, i32, i64, ptr, ptr, i32, i32, i32, i32, i64, i64, i64, i64, i64, i64, i64, i64, i64, i64, i32, i32, i64, i64, i32, i64, i64, i64, i64, i64, ptr, ptr, i32, ptr, i32, i32, i32, i64, i64, ptr, ptr, i32, i32, i32, i32, i32, ptr, ptr, ptr, i32, i32, i32, i32, i32, i32, i32, i64, i32, i64, i32, i32, i32, i32, i32, i32, i32, i64, ptr, ptr, i64, ptr, i32, %struct.aclInfo, i32, i64, i32, i32, i32, %struct.redisTLSContextConfig, ptr, ptr, ptr, ptr, ptr, i64, i32, ptr, i32, i32, i32, i64, i32, ptr }
%struct.connListener = type { [16 x i32], i32, ptr, i32, i32, ptr, ptr }
%struct.pause_event = type { i32, i64 }
%struct.malloc_stats = type { i64, i64, i64, i64, i64 }
%struct.anon = type { i64, i64, [16 x i64], i32 }
%struct.durationStats = type { i64, i64, i64 }
%struct.clientBufferLimitsConfig = type { i64, i64, i64 }
%struct.redisOpArray = type { ptr, i32, i32 }
%struct.aclInfo = type { i64, i64, i64, i64 }
%struct.redisTLSContextConfig = type { ptr, ptr, ptr, ptr, ptr, ptr, ptr, ptr, ptr, ptr, ptr, ptr, i32, i32, i32, i32 }
%struct.connection = type { ptr, i32, i32, i32, i16, i16, i16, ptr, ptr, ptr, ptr }
%struct.ConnectionType = type { ptr, ptr, ptr, ptr, ptr, ptr, ptr, ptr, ptr, ptr, ptr, ptr, ptr, ptr, ptr, ptr, ptr, ptr, ptr, ptr, ptr, ptr, ptr, ptr, ptr, ptr, ptr, ptr }

@server = external global %struct.redisServer, align 8
@.str.189 = private unnamed_addr constant [32 x i8] c"Unable to connect to MASTER: %s\00", align 1
@.str.190 = private unnamed_addr constant [32 x i8] c"MASTER <-> REPLICA sync started\00", align 1

; Function Attrs: nounwind uwtable
define internal void @connClose(ptr noundef %conn) #0 {
entry:
  %conn.addr = alloca ptr, align 8
  store ptr %conn, ptr %conn.addr, align 8
  %0 = load ptr, ptr %conn.addr, align 8
  %type = getelementptr inbounds %struct.connection, ptr %0, i32 0, i32 0
  %1 = load ptr, ptr %type, align 8
  %close = getelementptr inbounds %struct.ConnectionType, ptr %1, i32 0, i32 12
  %2 = load ptr, ptr %close, align 8
  %3 = load ptr, ptr %conn.addr, align 8
  call void %2(ptr noundef %3)
  ret void
}

; Function Attrs: nounwind uwtable
define internal ptr @connGetLastError(ptr noundef %conn) #0 {
entry:
  %conn.addr = alloca ptr, align 8
  store ptr %conn, ptr %conn.addr, align 8
  %0 = load ptr, ptr %conn.addr, align 8
  %type = getelementptr inbounds %struct.connection, ptr %0, i32 0, i32 0
  %1 = load ptr, ptr %type, align 8
  %get_last_error = getelementptr inbounds %struct.ConnectionType, ptr %1, i32 0, i32 21
  %2 = load ptr, ptr %get_last_error, align 8
  %3 = load ptr, ptr %conn.addr, align 8
  %call = call ptr %2(ptr noundef %3)
  ret ptr %call
}

; Function Attrs: nounwind uwtable
define internal i32 @connConnect(ptr noundef %conn, ptr noundef %addr, i32 noundef %port, ptr noundef %src_addr, ptr noundef %connect_handler) #0 {
entry:
  %conn.addr = alloca ptr, align 8
  %addr.addr = alloca ptr, align 8
  %port.addr = alloca i32, align 4
  %src_addr.addr = alloca ptr, align 8
  %connect_handler.addr = alloca ptr, align 8
  store ptr %conn, ptr %conn.addr, align 8
  store ptr %addr, ptr %addr.addr, align 8
  store i32 %port, ptr %port.addr, align 4
  store ptr %src_addr, ptr %src_addr.addr, align 8
  store ptr %connect_handler, ptr %connect_handler.addr, align 8
  %0 = load ptr, ptr %conn.addr, align 8
  %type = getelementptr inbounds %struct.connection, ptr %0, i32 0, i32 0
  %1 = load ptr, ptr %type, align 8
  %connect = getelementptr inbounds %struct.ConnectionType, ptr %1, i32 0, i32 13
  %2 = load ptr, ptr %connect, align 8
  %3 = load ptr, ptr %conn.addr, align 8
  %4 = load ptr, ptr %addr.addr, align 8
  %5 = load i32, ptr %port.addr, align 4
  %6 = load ptr, ptr %src_addr.addr, align 8
  %7 = load ptr, ptr %connect_handler.addr, align 8
  %call = call i32 %2(ptr noundef %3, ptr noundef %4, i32 noundef %5, ptr noundef %6, ptr noundef %7)
  ret i32 %call
}

; Function Attrs: nounwind uwtable
define internal ptr @connCreate(ptr noundef %ct) #0 {
entry:
  %ct.addr = alloca ptr, align 8
  store ptr %ct, ptr %ct.addr, align 8
  %0 = load ptr, ptr %ct.addr, align 8
  %conn_create = getelementptr inbounds %struct.ConnectionType, ptr %0, i32 0, i32 9
  %1 = load ptr, ptr %conn_create, align 8
  %call = call ptr %1()
  ret ptr %call
}

; Function Attrs: nounwind uwtable
define internal ptr @connTypeOfReplication() #0 {
entry:
  %retval = alloca ptr, align 8
  %0 = load i32, ptr getelementptr inbounds (%struct.redisServer, ptr @server, i32 0, i32 403), align 4
  %tobool = icmp ne i32 %0, 0
  br i1 %tobool, label %if.then, label %if.end

if.then:                                          ; preds = %entry
  %call = call ptr @connectionTypeTls()
  store ptr %call, ptr %retval, align 8
  br label %return

if.end:                                           ; preds = %entry
  %call1 = call ptr @connectionTypeTcp()
  store ptr %call1, ptr %retval, align 8
  br label %return

return:                                           ; preds = %if.end, %if.then
  %1 = load ptr, ptr %retval, align 8
  ret ptr %1
}

; Function Attrs: nounwind uwtable
define dso_local i32 @connectWithMaster() #0 {
entry:
  %retval = alloca i32, align 4
  %call = call ptr @connTypeOfReplication()
  %call1 = call ptr @connCreate(ptr noundef %call)
  store ptr %call1, ptr getelementptr inbounds (%struct.redisServer, ptr @server, i32 0, i32 293), align 8
  %0 = load ptr, ptr getelementptr inbounds (%struct.redisServer, ptr @server, i32 0, i32 293), align 8
  %1 = load ptr, ptr getelementptr inbounds (%struct.redisServer, ptr @server, i32 0, i32 283), align 8
  %2 = load i32, ptr getelementptr inbounds (%struct.redisServer, ptr @server, i32 0, i32 284), align 8
  %3 = load ptr, ptr getelementptr inbounds (%struct.redisServer, ptr @server, i32 0, i32 49), align 8
  %call2 = call i32 @connConnect(ptr noundef %0, ptr noundef %1, i32 noundef %2, ptr noundef %3, ptr noundef @syncWithMaster)
  %cmp = icmp eq i32 %call2, -1
  br i1 %cmp, label %if.then, label %if.end6

if.then:                                          ; preds = %entry
  br label %do.body

do.body:                                          ; preds = %if.then
  %4 = load i32, ptr getelementptr inbounds (%struct.redisServer, ptr @server, i32 0, i32 156), align 8
  %cmp3 = icmp slt i32 3, %4
  br i1 %cmp3, label %if.then4, label %if.end

if.then4:                                         ; preds = %do.body
  br label %do.end

if.end:                                           ; preds = %do.body
  %5 = load ptr, ptr getelementptr inbounds (%struct.redisServer, ptr @server, i32 0, i32 293), align 8
  %call5 = call ptr @connGetLastError(ptr noundef %5)
  call void (i32, ptr, ...) @_serverLog(i32 noundef 3, ptr noundef @.str.189, ptr noundef %call5)
  br label %do.end

do.end:                                           ; preds = %if.end, %if.then4
  %6 = load ptr, ptr getelementptr inbounds (%struct.redisServer, ptr @server, i32 0, i32 293), align 8
  call void @connClose(ptr noundef %6)
  store ptr null, ptr getelementptr inbounds (%struct.redisServer, ptr @server, i32 0, i32 293), align 8
  store i32 -1, ptr %retval, align 4
  br label %return

if.end6:                                          ; preds = %entry
  %atomic-load = load atomic i64, ptr getelementptr inbounds (%struct.redisServer, ptr @server, i32 0, i32 349) seq_cst, align 8
  store i64 %atomic-load, ptr getelementptr inbounds (%struct.redisServer, ptr @server, i32 0, i32 296), align 8
  store i32 2, ptr getelementptr inbounds (%struct.redisServer, ptr @server, i32 0, i32 289), align 4
  br label %do.body7

do.body7:                                         ; preds = %if.end6
  %7 = load i32, ptr getelementptr inbounds (%struct.redisServer, ptr @server, i32 0, i32 156), align 8
  %cmp8 = icmp slt i32 2, %7
  br i1 %cmp8, label %if.then9, label %if.end10

if.then9:                                         ; preds = %do.body7
  br label %do.end11

if.end10:                                         ; preds = %do.body7
  call void (i32, ptr, ...) @_serverLog(i32 noundef 2, ptr noundef @.str.190)
  br label %do.end11

do.end11:                                         ; preds = %if.end10, %if.then9
  store i32 0, ptr %retval, align 4
  br label %return

return:                                           ; preds = %do.end11, %do.end
  %8 = load i32, ptr %retval, align 4
  ret i32 %8
}