; Function Attrs: nounwind uwtable
define dso_local noundef i32 @connectWithMaster() local_unnamed_addr #0 {
entry:
  %0 = load i32, ptr getelementptr inbounds (%struct.redisServer, ptr @server, i64 0, i32 403), align 4
  %tobool.not.i = icmp eq i32 %0, 0
  br i1 %tobool.not.i, label %if.end.i, label %if.then.i

if.then.i:                                        ; preds = %entry
  %call.i = tail call ptr @connectionTypeTls() #21
  br label %connTypeOfReplication.exit

if.end.i:                                         ; preds = %entry
  %call1.i = tail call ptr @connectionTypeTcp() #21
  br label %connTypeOfReplication.exit

connTypeOfReplication.exit:                       ; preds = %if.then.i, %if.end.i
  %retval.0.i = phi ptr [ %call.i, %if.then.i ], [ %call1.i, %if.end.i ]
  %1 = getelementptr i8, ptr %retval.0.i, i64 72
  %call.val = load ptr, ptr %1, align 8
  %call.i1 = tail call ptr %call.val() #21
  store ptr %call.i1, ptr getelementptr inbounds (%struct.redisServer, ptr @server, i64 0, i32 293), align 8
  %2 = load ptr, ptr getelementptr inbounds (%struct.redisServer, ptr @server, i64 0, i32 283), align 8
  %3 = load i32, ptr getelementptr inbounds (%struct.redisServer, ptr @server, i64 0, i32 284), align 8
  %4 = load ptr, ptr getelementptr inbounds (%struct.redisServer, ptr @server, i64 0, i32 49), align 8
  %5 = load ptr, ptr %call.i1, align 8
  %connect.i = getelementptr inbounds i8, ptr %5, i64 104
  %6 = load ptr, ptr %connect.i, align 8
  %call.i2 = tail call i32 %6(ptr noundef nonnull %call.i1, ptr noundef %2, i32 noundef %3, ptr noundef %4, ptr noundef nonnull @syncWithMaster) #21
  %cmp = icmp eq i32 %call.i2, -1
  br i1 %cmp, label %do.body, label %if.end6

do.body:                                          ; preds = %connTypeOfReplication.exit
  %7 = load i32, ptr getelementptr inbounds (%struct.redisServer, ptr @server, i64 0, i32 156), align 8
  %cmp3 = icmp sgt i32 %7, 3
  br i1 %cmp3, label %do.end, label %if.end

if.end:                                           ; preds = %do.body
  %8 = load ptr, ptr getelementptr inbounds (%struct.redisServer, ptr @server, i64 0, i32 293), align 8
  %9 = load ptr, ptr %8, align 8
  %get_last_error.i = getelementptr inbounds i8, ptr %9, i64 168
  %10 = load ptr, ptr %get_last_error.i, align 8
  %call.i3 = tail call ptr %10(ptr noundef nonnull %8) #21
  tail call void (i32, ptr, ...) @_serverLog(i32 noundef 3, ptr noundef nonnull @.str.189, ptr noundef %call.i3) #21
  br label %do.end

do.end:                                           ; preds = %do.body, %if.end
  %11 = load ptr, ptr getelementptr inbounds (%struct.redisServer, ptr @server, i64 0, i32 293), align 8
  %12 = load ptr, ptr %11, align 8
  %close.i = getelementptr inbounds i8, ptr %12, i64 96
  %13 = load ptr, ptr %close.i, align 8
  tail call void %13(ptr noundef nonnull %11) #21
  store ptr null, ptr getelementptr inbounds (%struct.redisServer, ptr @server, i64 0, i32 293), align 8
  br label %return

if.end6:                                          ; preds = %connTypeOfReplication.exit
  %atomic-load = load atomic i64, ptr getelementptr inbounds (%struct.redisServer, ptr @server, i64 0, i32 349) seq_cst, align 8
  store i64 %atomic-load, ptr getelementptr inbounds (%struct.redisServer, ptr @server, i64 0, i32 296), align 8
  store i32 2, ptr getelementptr inbounds (%struct.redisServer, ptr @server, i64 0, i32 289), align 4
  %14 = load i32, ptr getelementptr inbounds (%struct.redisServer, ptr @server, i64 0, i32 156), align 8
  %cmp8 = icmp sgt i32 %14, 2
  br i1 %cmp8, label %return, label %if.end10

if.end10:                                         ; preds = %if.end6
  tail call void (i32, ptr, ...) @_serverLog(i32 noundef 2, ptr noundef nonnull @.str.190) #21
  br label %return

return:                                           ; preds = %if.end10, %if.end6, %do.end
  %retval.0 = phi i32 [ -1, %do.end ], [ 0, %if.end6 ], [ 0, %if.end10 ]
  ret i32 %retval.0
}